; Function Attrs: mustprogress uwtable
define internal fastcc noundef ptr @_ZN12_GLOBAL__N_112doGetPatternEP15UResourceBundlePKcS3_R10UErrorCodeS5_(ptr noundef %0, ptr noundef %1, ptr noundef %2, ptr noundef nonnull align 4 dereferenceable(4) %3, ptr noundef nonnull align 4 dereferenceable(4) %4) unnamed_addr #1 personality ptr @__gxx_personality_v0 {
  %6 = alloca %"class.icu_77::CharString", align 8
  %7 = alloca %"class.icu_77::StringPiece", align 8
  %8 = alloca %"class.icu_77::StringPiece", align 8
  %9 = alloca %"class.icu_77::StringPiece", align 8
  %10 = alloca %"class.icu_77::StringPiece", align 8
  call void @llvm.lifetime.start.p0(i64 64, ptr nonnull %6) #14
  call void @_ZN6icu_7715MaybeStackArrayIcLi40EEC1Ev(ptr noundef nonnull align 8 dereferenceable(60) %6)
  %11 = getelementptr inbounds nuw i8, ptr %6, i64 56
  store i32 0, ptr %11, align 8, !tbaa !21
  %12 = load ptr, ptr %6, align 8, !tbaa !3
  store i8 0, ptr %12, align 1, !tbaa !23
  invoke void @_ZN6icu_7711StringPieceC1EPKc(ptr noundef nonnull align 8 dereferenceable(12) %7, ptr noundef nonnull @.str.7)
          to label %13 unwind label %35

13:                                               ; preds = %5
  %14 = load ptr, ptr %7, align 8
  %15 = getelementptr inbounds nuw i8, ptr %7, i64 8
  %16 = load i32, ptr %15, align 8
  %17 = invoke noundef nonnull align 8 dereferenceable(60) ptr @_ZN6icu_7710CharString6appendEPKciR10UErrorCode(ptr noundef nonnull align 8 dereferenceable(60) %6, ptr noundef %14, i32 noundef %16, ptr noundef nonnull align 4 dereferenceable(4) %3)
          to label %_ZN6icu_7710CharString6appendENS_11StringPieceER10UErrorCode.exit unwind label %35

_ZN6icu_7710CharString6appendENS_11StringPieceER10UErrorCode.exit: ; preds = %13
  invoke void @_ZN6icu_7711StringPieceC1EPKc(ptr noundef nonnull align 8 dereferenceable(12) %8, ptr noundef %1)
          to label %18 unwind label %35

18:                                               ; preds = %_ZN6icu_7710CharString6appendENS_11StringPieceER10UErrorCode.exit
  %19 = load ptr, ptr %8, align 8
  %20 = getelementptr inbounds nuw i8, ptr %8, i64 8
  %21 = load i32, ptr %20, align 8
  %22 = invoke noundef nonnull align 8 dereferenceable(60) ptr @_ZN6icu_7710CharString6appendEPKciR10UErrorCode(ptr noundef nonnull align 8 dereferenceable(60) %6, ptr noundef %19, i32 noundef %21, ptr noundef nonnull align 4 dereferenceable(4) %3)
          to label %_ZN6icu_7710CharString6appendENS_11StringPieceER10UErrorCode.exit11 unwind label %35

_ZN6icu_7710CharString6appendENS_11StringPieceER10UErrorCode.exit11: ; preds = %18
  invoke void @_ZN6icu_7711StringPieceC1EPKc(ptr noundef nonnull align 8 dereferenceable(12) %9, ptr noundef nonnull @.str.8)
          to label %23 unwind label %35

23:                                               ; preds = %_ZN6icu_7710CharString6appendENS_11StringPieceER10UErrorCode.exit11
  %24 = load ptr, ptr %9, align 8
  %25 = getelementptr inbounds nuw i8, ptr %9, i64 8
  %26 = load i32, ptr %25, align 8
  %27 = invoke noundef nonnull align 8 dereferenceable(60) ptr @_ZN6icu_7710CharString6appendEPKciR10UErrorCode(ptr noundef nonnull align 8 dereferenceable(60) %6, ptr noundef %24, i32 noundef %26, ptr noundef nonnull align 4 dereferenceable(4) %3)
          to label %_ZN6icu_7710CharString6appendENS_11StringPieceER10UErrorCode.exit12 unwind label %35

_ZN6icu_7710CharString6appendENS_11StringPieceER10UErrorCode.exit12: ; preds = %23
  invoke void @_ZN6icu_7711StringPieceC1EPKc(ptr noundef nonnull align 8 dereferenceable(12) %10, ptr noundef %2)
          to label %28 unwind label %35

28:                                               ; preds = %_ZN6icu_7710CharString6appendENS_11StringPieceER10UErrorCode.exit12
  %29 = load ptr, ptr %10, align 8
  %30 = getelementptr inbounds nuw i8, ptr %10, i64 8
  %31 = load i32, ptr %30, align 8
  %32 = invoke noundef nonnull align 8 dereferenceable(60) ptr @_ZN6icu_7710CharString6appendEPKciR10UErrorCode(ptr noundef nonnull align 8 dereferenceable(60) %6, ptr noundef %29, i32 noundef %31, ptr noundef nonnull align 4 dereferenceable(4) %3)
          to label %_ZN6icu_7710CharString6appendENS_11StringPieceER10UErrorCode.exit13 unwind label %35

_ZN6icu_7710CharString6appendENS_11StringPieceER10UErrorCode.exit13: ; preds = %28
  %33 = load i32, ptr %3, align 4, !tbaa !13
  %34 = icmp slt i32 %33, 1
  br i1 %34, label %37, label %40

35:                                               ; preds = %28, %23, %18, %13, %37, %_ZN6icu_7710CharString6appendENS_11StringPieceER10UErrorCode.exit12, %_ZN6icu_7710CharString6appendENS_11StringPieceER10UErrorCode.exit11, %_ZN6icu_7710CharString6appendENS_11StringPieceER10UErrorCode.exit, %5
  %36 = landingpad { ptr, i32 }
          cleanup
  call void @_ZN6icu_7715MaybeStackArrayIcLi40EED1Ev(ptr noundef nonnull align 8 dereferenceable(60) %6) #14
  call void @llvm.lifetime.end.p0(i64 64, ptr nonnull %6) #14
  resume { ptr, i32 } %36

37:                                               ; preds = %_ZN6icu_7710CharString6appendENS_11StringPieceER10UErrorCode.exit13
  %38 = load ptr, ptr %6, align 8, !tbaa !3
  %39 = invoke ptr @ures_getStringByKeyWithFallback_77(ptr noundef %0, ptr noundef %38, ptr noundef null, ptr noundef nonnull %4)
          to label %40 unwind label %35

40:                                               ; preds = %37, %_ZN6icu_7710CharString6appendENS_11StringPieceER10UErrorCode.exit13
  %.0 = phi ptr [ @.str.5, %_ZN6icu_7710CharString6appendENS_11StringPieceER10UErrorCode.exit13 ], [ %39, %37 ]
  call void @_ZN6icu_7715MaybeStackArrayIcLi40EED1Ev(ptr noundef nonnull align 8 dereferenceable(60) %6) #14
  call void @llvm.lifetime.end.p0(i64 64, ptr nonnull %6) #14
  ret ptr %.0
}